; Function Attrs: mustprogress sspstrong uwtable
define void @_ZN3tbb6detail2r125thread_request_serializer6updateEi(ptr noundef nonnull align 8 dereferenceable(33) %0, i32 noundef %1) unnamed_addr #1 align 2 personality ptr @__gxx_personality_v0 {
  %3 = alloca %"class.tbb::detail::d1::unique_scoped_lock", align 8
  %4 = getelementptr inbounds nuw i8, ptr %0, i64 24
  %5 = sext i32 %1 to i64
  %6 = add nsw i64 %5, 65536
  %7 = atomicrmw add ptr %4, i64 %6 seq_cst, align 8
  %sext.mask = and i64 %7, 4294967295
  %8 = icmp eq i64 %sext.mask, 32768
  br i1 %8, label %9, label %34

9:                                                ; preds = %2
  %10 = atomicrmw xchg ptr %4, i64 32768 seq_cst, align 8
  %11 = trunc i64 %10 to i32
  %12 = and i32 %11, 65535
  %13 = add nsw i32 %12, -32768
  call void @llvm.lifetime.start.p0(i64 8, ptr nonnull %3) #11
  %14 = getelementptr inbounds nuw i8, ptr %0, i64 32
  store ptr null, ptr %3, align 8, !tbaa !27
  call void @_ZN3tbb6detail2d118unique_scoped_lockINS1_5mutexEE7acquireERS3_(ptr noundef nonnull align 8 dereferenceable(8) %3, ptr noundef nonnull align 1 dereferenceable(1) %14)
  %15 = getelementptr inbounds nuw i8, ptr %0, i64 20
  %16 = load atomic i32, ptr %15 monotonic, align 4
  %17 = add nsw i32 %16, %13
  store atomic i32 %17, ptr %15 monotonic, align 4
  %18 = getelementptr inbounds nuw i8, ptr %0, i64 16
  %19 = load i32, ptr %18, align 8, !tbaa !10
  %20 = load atomic i32, ptr %15 monotonic, align 4
  %21 = sub nsw i32 %20, %13
  %..i.i = call noundef i32 @llvm.smin.i32(i32 %19, i32 %20)
  %..i1.i = call noundef i32 @llvm.smin.i32(i32 %19, i32 %21)
  %22 = sub nsw i32 %..i.i, %..i1.i
  %23 = getelementptr inbounds nuw i8, ptr %0, i64 8
  %24 = load ptr, ptr %23, align 8, !tbaa !30
  invoke void @_ZN3tbb6detail2r117thread_dispatcher25adjust_job_count_estimateEi(ptr noundef nonnull align 8 dereferenceable(152) %24, i32 noundef %22)
          to label %25 unwind label %32

25:                                               ; preds = %9
  %26 = load ptr, ptr %3, align 8, !tbaa !27
  %.not.i = icmp eq ptr %26, null
  br i1 %.not.i, label %_ZN3tbb6detail2d118unique_scoped_lockINS1_5mutexEED2Ev.exit, label %27

27:                                               ; preds = %25
  %28 = atomicrmw xchg ptr %26, i8 0 seq_cst, align 1
  invoke void @_ZN3tbb6detail2r121notify_by_address_oneEPv(ptr noundef nonnull align 1 dereferenceable(1) %26)
          to label %_ZN3tbb6detail2d118unique_scoped_lockINS1_5mutexEED2Ev.exit unwind label %29

29:                                               ; preds = %27
  %30 = landingpad { ptr, i32 }
          catch ptr null
  %31 = extractvalue { ptr, i32 } %30, 0
  call void @__clang_call_terminate(ptr %31) #14
  unreachable

_ZN3tbb6detail2d118unique_scoped_lockINS1_5mutexEED2Ev.exit: ; preds = %27, %25
  call void @llvm.lifetime.end.p0(i64 8, ptr nonnull %3) #11
  br label %34

32:                                               ; preds = %9
  %33 = landingpad { ptr, i32 }
          cleanup
  call void @_ZN3tbb6detail2d118unique_scoped_lockINS1_5mutexEED2Ev(ptr noundef nonnull align 8 dereferenceable(8) %3) #11
  call void @llvm.lifetime.end.p0(i64 8, ptr nonnull %3) #11
  resume { ptr, i32 } %33

34:                                               ; preds = %_ZN3tbb6detail2d118unique_scoped_lockINS1_5mutexEED2Ev.exit, %2
  ret void
}